; Function Attrs: nounwind uwtable
define internal fastcc i32 @gcm_mask(ptr noundef %0, ptr noundef nonnull %1, i64 noundef range(i64 0, 16) %2, i64 noundef range(i64 1, 17) %3, ptr noundef readonly captures(none) %4, ptr noundef captures(none) %5) unnamed_addr #2 {
  %7 = alloca i64, align 8
  call void @llvm.lifetime.start.p0(i64 8, ptr nonnull %7) #11
  store i64 0, ptr %7, align 8, !tbaa !3
  %8 = getelementptr inbounds nuw i8, ptr %0, i64 384
  %9 = call i32 @mbedtls_cipher_update(ptr noundef %0, ptr noundef nonnull %8, i64 noundef 16, ptr noundef nonnull %1, ptr noundef nonnull %7) #11
  %.not = icmp eq i32 %9, 0
  br i1 %.not, label %11, label %10

10:                                               ; preds = %6
  call void @mbedtls_platform_zeroize(ptr noundef nonnull %1, i64 noundef 16) #11
  br label %mbedtls_xor.exit

11:                                               ; preds = %6
  %12 = getelementptr inbounds nuw i8, ptr %0, i64 416
  %13 = load i8, ptr %12, align 8, !tbaa !20
  %14 = icmp eq i8 %13, 0
  br i1 %14, label %15, label %mbedtls_xor.exit33

15:                                               ; preds = %11
  %16 = getelementptr inbounds nuw i8, ptr %0, i64 400
  %17 = getelementptr inbounds nuw i8, ptr %16, i64 %2
  %.not.i3141 = icmp samesign ult i64 %3, 8
  br i1 %.not.i3141, label %.lr.ph44.preheader, label %.lr.ph

.preheader40:                                     ; preds = %.lr.ph
  %18 = icmp samesign ult i64 %20, %3
  br i1 %18, label %.lr.ph44.preheader, label %mbedtls_xor.exit33.thread

.lr.ph44.preheader:                               ; preds = %15, %.preheader40
  %.1.i3243.ph = phi i64 [ 0, %15 ], [ %20, %.preheader40 ]
  br label %.lr.ph44

mbedtls_xor.exit33.thread:                        ; preds = %.preheader40
  %19 = getelementptr inbounds nuw i8, ptr %1, i64 %2
  br label %.lr.ph47.preheader

.lr.ph:                                           ; preds = %15, %.lr.ph
  %20 = phi i64 [ %24, %.lr.ph ], [ 8, %15 ]
  %.0.i3042 = phi i64 [ 8, %.lr.ph ], [ 0, %15 ]
  %21 = getelementptr inbounds nuw i8, ptr %17, i64 %.0.i3042
  %.0.copyload.i34 = load i64, ptr %21, align 1
  %22 = getelementptr inbounds nuw i8, ptr %4, i64 %.0.i3042
  %.0.copyload.i = load i64, ptr %22, align 1
  %23 = xor i64 %.0.copyload.i, %.0.copyload.i34
  store i64 %23, ptr %21, align 1
  %24 = add nuw nsw i64 %20, 8
  %.not.i31 = icmp samesign ugt i64 %24, %3
  br i1 %.not.i31, label %.preheader40, label %.lr.ph, !llvm.loop !21

.lr.ph44:                                         ; preds = %.lr.ph44.preheader, %.lr.ph44
  %.1.i3243 = phi i64 [ %30, %.lr.ph44 ], [ %.1.i3243.ph, %.lr.ph44.preheader ]
  %25 = getelementptr inbounds nuw i8, ptr %17, i64 %.1.i3243
  %26 = load i8, ptr %25, align 1, !tbaa !14
  %27 = getelementptr inbounds nuw i8, ptr %4, i64 %.1.i3243
  %28 = load i8, ptr %27, align 1, !tbaa !14
  %29 = xor i8 %28, %26
  store i8 %29, ptr %25, align 1, !tbaa !14
  %30 = add nuw nsw i64 %.1.i3243, 1
  %exitcond.not = icmp eq i64 %30, %3
  br i1 %exitcond.not, label %mbedtls_xor.exit33, label %.lr.ph44, !llvm.loop !22

mbedtls_xor.exit33:                               ; preds = %.lr.ph44, %11
  %31 = getelementptr inbounds nuw i8, ptr %1, i64 %2
  %.not.i2745 = icmp samesign ult i64 %3, 8
  br i1 %.not.i2745, label %.lr.ph50.preheader, label %.lr.ph47.preheader

.lr.ph47.preheader:                               ; preds = %mbedtls_xor.exit33.thread, %mbedtls_xor.exit33
  %32 = phi ptr [ %19, %mbedtls_xor.exit33.thread ], [ %31, %mbedtls_xor.exit33 ]
  %33 = getelementptr inbounds nuw i8, ptr %1, i64 %2
  br label %.lr.ph47

.preheader39:                                     ; preds = %.lr.ph47
  %34 = icmp samesign ult i64 %36, %3
  br i1 %34, label %.lr.ph50.preheader, label %mbedtls_xor.exit29

.lr.ph50.preheader:                               ; preds = %mbedtls_xor.exit33, %.preheader39
  %.0.i26.lcssa70 = phi i64 [ %36, %.preheader39 ], [ 0, %mbedtls_xor.exit33 ]
  %35 = phi ptr [ %32, %.preheader39 ], [ %31, %mbedtls_xor.exit33 ]
  %.not.i27456569 = phi i1 [ false, %.preheader39 ], [ true, %mbedtls_xor.exit33 ]
  br label %.lr.ph50

.lr.ph47:                                         ; preds = %.lr.ph47.preheader, %.lr.ph47
  %36 = phi i64 [ %41, %.lr.ph47 ], [ 8, %.lr.ph47.preheader ]
  %.0.i2646 = phi i64 [ %36, %.lr.ph47 ], [ 0, %.lr.ph47.preheader ]
  %37 = getelementptr inbounds nuw i8, ptr %33, i64 %.0.i2646
  %.0.copyload.i36 = load i64, ptr %37, align 1
  %38 = getelementptr inbounds nuw i8, ptr %4, i64 %.0.i2646
  %.0.copyload.i35 = load i64, ptr %38, align 1
  %39 = xor i64 %.0.copyload.i35, %.0.copyload.i36
  %40 = getelementptr inbounds nuw i8, ptr %5, i64 %.0.i2646
  store i64 %39, ptr %40, align 1
  %41 = add nuw nsw i64 %36, 8
  %.not.i27 = icmp samesign ugt i64 %41, %3
  br i1 %.not.i27, label %.preheader39, label %.lr.ph47, !llvm.loop !21

.lr.ph50:                                         ; preds = %.lr.ph50.preheader, %.lr.ph50
  %.1.i2849 = phi i64 [ %48, %.lr.ph50 ], [ %.0.i26.lcssa70, %.lr.ph50.preheader ]
  %42 = getelementptr inbounds nuw i8, ptr %35, i64 %.1.i2849
  %43 = load i8, ptr %42, align 1, !tbaa !14
  %44 = getelementptr inbounds nuw i8, ptr %4, i64 %.1.i2849
  %45 = load i8, ptr %44, align 1, !tbaa !14
  %46 = xor i8 %45, %43
  %47 = getelementptr inbounds nuw i8, ptr %5, i64 %.1.i2849
  store i8 %46, ptr %47, align 1, !tbaa !14
  %48 = add nuw nsw i64 %.1.i2849, 1
  %exitcond59.not = icmp eq i64 %48, %3
  br i1 %exitcond59.not, label %mbedtls_xor.exit29, label %.lr.ph50, !llvm.loop !22

mbedtls_xor.exit29:                               ; preds = %.lr.ph50, %.preheader39
  %.not.i27456568 = phi i1 [ false, %.preheader39 ], [ %.not.i27456569, %.lr.ph50 ]
  %49 = load i8, ptr %12, align 8, !tbaa !20
  %50 = icmp eq i8 %49, 1
  br i1 %50, label %51, label %mbedtls_xor.exit

51:                                               ; preds = %mbedtls_xor.exit29
  %52 = getelementptr inbounds nuw i8, ptr %0, i64 400
  %53 = getelementptr inbounds nuw i8, ptr %52, i64 %2
  br i1 %.not.i27456568, label %.lr.ph56.preheader, label %.lr.ph53

.preheader:                                       ; preds = %.lr.ph53
  %54 = icmp samesign ult i64 %55, %3
  br i1 %54, label %.lr.ph56.preheader, label %mbedtls_xor.exit

.lr.ph56.preheader:                               ; preds = %51, %.preheader
  %.1.i55.ph = phi i64 [ 0, %51 ], [ %55, %.preheader ]
  br label %.lr.ph56

.lr.ph53:                                         ; preds = %51, %.lr.ph53
  %55 = phi i64 [ %59, %.lr.ph53 ], [ 8, %51 ]
  %.0.i52 = phi i64 [ %55, %.lr.ph53 ], [ 0, %51 ]
  %56 = getelementptr inbounds nuw i8, ptr %53, i64 %.0.i52
  %.0.copyload.i38 = load i64, ptr %56, align 1
  %57 = getelementptr inbounds nuw i8, ptr %5, i64 %.0.i52
  %.0.copyload.i37 = load i64, ptr %57, align 1
  %58 = xor i64 %.0.copyload.i37, %.0.copyload.i38
  store i64 %58, ptr %56, align 1
  %59 = add nuw nsw i64 %55, 8
  %.not.i = icmp samesign ugt i64 %59, %3
  br i1 %.not.i, label %.preheader, label %.lr.ph53, !llvm.loop !21

.lr.ph56:                                         ; preds = %.lr.ph56.preheader, %.lr.ph56
  %.1.i55 = phi i64 [ %65, %.lr.ph56 ], [ %.1.i55.ph, %.lr.ph56.preheader ]
  %60 = getelementptr inbounds nuw i8, ptr %53, i64 %.1.i55
  %61 = load i8, ptr %60, align 1, !tbaa !14
  %62 = getelementptr inbounds nuw i8, ptr %5, i64 %.1.i55
  %63 = load i8, ptr %62, align 1, !tbaa !14
  %64 = xor i8 %63, %61
  store i8 %64, ptr %60, align 1, !tbaa !14
  %65 = add nuw nsw i64 %.1.i55, 1
  %exitcond60.not = icmp eq i64 %65, %3
  br i1 %exitcond60.not, label %mbedtls_xor.exit, label %.lr.ph56, !llvm.loop !22

mbedtls_xor.exit:                                 ; preds = %.lr.ph56, %.preheader, %mbedtls_xor.exit29, %10
  call void @llvm.lifetime.end.p0(i64 8, ptr nonnull %7) #11
  ret i32 %9
}